target datalayout = "e-m:e-p270:32:32-p271:32:32-p272:64:64-i64:64-i128:128-f80:128-n8:16:32:64-S128"
target triple = "x86_64-pc-linux-gnu"

%struct.normal_encoding = type { %struct.encoding, [256 x i8], ptr, ptr, ptr, ptr, ptr, ptr, ptr, ptr, ptr }
%struct.encoding = type { [3 x ptr], [2 x ptr], ptr, ptr, ptr, ptr, ptr, ptr, ptr, ptr, ptr, ptr, i32, i8, i8 }

; Function Attrs: nounwind uwtable
define internal i32 @normal_nameLength(ptr noundef %0, ptr noundef %1) #0 {
  %3 = alloca ptr, align 8
  %4 = alloca ptr, align 8
  %5 = alloca ptr, align 8
  store ptr %0, ptr %3, align 8, !tbaa !45
  store ptr %1, ptr %4, align 8, !tbaa !4
  call void @llvm.lifetime.start.p0(i64 8, ptr %5) #4
  %6 = load ptr, ptr %4, align 8, !tbaa !4
  store ptr %6, ptr %5, align 8, !tbaa !4
  br label %7

7:                                                ; preds = %35, %2
  %8 = load ptr, ptr %3, align 8, !tbaa !45
  %9 = getelementptr inbounds nuw %struct.normal_encoding, ptr %8, i32 0, i32 1
  %10 = load ptr, ptr %4, align 8, !tbaa !4
  %11 = load i8, ptr %10, align 1, !tbaa !13
  %12 = zext i8 %11 to i64
  %13 = getelementptr inbounds nuw [256 x i8], ptr %9, i64 0, i64 %12
  %14 = load i8, ptr %13, align 1, !tbaa !13
  %15 = zext i8 %14 to i32
  switch i32 %15, label %28 [
    i32 5, label %16
    i32 6, label %19
    i32 7, label %22
    i32 29, label %25
    i32 22, label %25
    i32 24, label %25
    i32 25, label %25
    i32 26, label %25
    i32 27, label %25
  ]

16:                                               ; preds = %7
  %17 = load ptr, ptr %4, align 8, !tbaa !4
  %18 = getelementptr inbounds i8, ptr %17, i64 2
  store ptr %18, ptr %4, align 8, !tbaa !4
  br label %35

19:                                               ; preds = %7
  %20 = load ptr, ptr %4, align 8, !tbaa !4
  %21 = getelementptr inbounds i8, ptr %20, i64 3
  store ptr %21, ptr %4, align 8, !tbaa !4
  br label %35

22:                                               ; preds = %7
  %23 = load ptr, ptr %4, align 8, !tbaa !4
  %24 = getelementptr inbounds i8, ptr %23, i64 4
  store ptr %24, ptr %4, align 8, !tbaa !4
  br label %35

25:                                               ; preds = %7, %7, %7, %7, %7, %7
  %26 = load ptr, ptr %4, align 8, !tbaa !4
  %27 = getelementptr inbounds i8, ptr %26, i64 1
  store ptr %27, ptr %4, align 8, !tbaa !4
  br label %35

28:                                               ; preds = %7
  %29 = load ptr, ptr %4, align 8, !tbaa !4
  %30 = load ptr, ptr %5, align 8, !tbaa !4
  %31 = ptrtoint ptr %29 to i64
  %32 = ptrtoint ptr %30 to i64
  %33 = sub i64 %31, %32
  %34 = trunc i64 %33 to i32
  call void @llvm.lifetime.end.p0(i64 8, ptr %5) #4
  ret i32 %34

35:                                               ; preds = %25, %22, %19, %16
  br label %7
}