; Function Attrs: nofree norecurse nosync nounwind memory(argmem: read) uwtable
define internal noundef i32 @normal_nameLength(ptr noundef readonly captures(none) %0, ptr noundef %1) #7 {
  %3 = getelementptr inbounds nuw i8, ptr %0, i64 128
  br label %4

4:                                                ; preds = %17, %2
  %.0 = phi ptr [ %1, %2 ], [ %18, %17 ]
  %5 = load i8, ptr %.0, align 1, !tbaa !9
  %6 = zext i8 %5 to i64
  %7 = getelementptr inbounds nuw [256 x i8], ptr %3, i64 0, i64 %6
  %8 = load i8, ptr %7, align 1, !tbaa !9
  switch i8 %8, label %12 [
    i8 5, label %17
    i8 6, label %9
    i8 7, label %10
    i8 29, label %11
    i8 22, label %11
    i8 24, label %11
    i8 25, label %11
    i8 26, label %11
    i8 27, label %11
  ]

9:                                                ; preds = %4
  br label %17

10:                                               ; preds = %4
  br label %17

11:                                               ; preds = %4, %4, %4, %4, %4, %4
  br label %17

12:                                               ; preds = %4
  %13 = ptrtoint ptr %.0 to i64
  %14 = ptrtoint ptr %1 to i64
  %15 = sub i64 %13, %14
  %16 = trunc i64 %15 to i32
  ret i32 %16

17:                                               ; preds = %4, %11, %10, %9
  %.sink = phi i64 [ 1, %11 ], [ 4, %10 ], [ 3, %9 ], [ 2, %4 ]
  %18 = getelementptr inbounds nuw i8, ptr %.0, i64 %.sink
  br label %4
}